; Function Attrs: mustprogress nounwind uwtable
define dso_local void @_ZN4llvm16LTOCodeGenerator17DiagnosticHandlerERKNS_14DiagnosticInfoE(ptr noundef nonnull readonly align 8 captures(none) dereferenceable(1680) %0, ptr noundef nonnull align 8 dereferenceable(13) %1) local_unnamed_addr #1 align 2 {
  %3 = alloca %"class.std::__cxx11::basic_string", align 8
  %4 = alloca %"class.llvm::raw_string_ostream", align 8
  %5 = alloca %"class.llvm::DiagnosticPrinterRawOStream", align 8
  %6 = getelementptr inbounds nuw i8, ptr %1, i64 12
  %7 = load i8, ptr %6, align 4
  %switch.tableidx = add i8 %7, -1
  %8 = icmp ult i8 %switch.tableidx, 3
  br i1 %8, label %switch.lookup, label %10

switch.lookup:                                    ; preds = %2
  %9 = zext nneg i8 %switch.tableidx to i64
  %switch.gep = getelementptr inbounds nuw [3 x i32], ptr @switch.table._ZN4llvm16LTOCodeGenerator17DiagnosticHandlerERKNS_14DiagnosticInfoE, i64 0, i64 %9
  %switch.load = load i32, ptr %switch.gep, align 4
  br label %10

10:                                               ; preds = %switch.lookup, %2
  %.0 = phi i32 [ 0, %2 ], [ %switch.load, %switch.lookup ]
  call void @_ZNSt7__cxx1112basic_stringIcSt11char_traitsIcESaIcEEC1Ev(ptr noundef nonnull align 8 dereferenceable(32) %3) #23
  %11 = getelementptr inbounds nuw i8, ptr %4, i64 8
  store i32 0, ptr %11, align 8
  %12 = getelementptr inbounds nuw i8, ptr %4, i64 40
  store i8 0, ptr %12, align 8
  %13 = getelementptr inbounds nuw i8, ptr %4, i64 44
  store i32 1, ptr %13, align 4
  %14 = getelementptr inbounds nuw i8, ptr %4, i64 16
  call void @llvm.memset.p0.i64(ptr noundef nonnull align 8 dereferenceable(24) %14, i8 0, i64 24, i1 false)
  store ptr getelementptr inbounds nuw inrange(-16, 104) (i8, ptr @_ZTVN4llvm18raw_string_ostreamE, i64 16), ptr %4, align 8
  %15 = getelementptr inbounds nuw i8, ptr %4, i64 48
  store ptr %3, ptr %15, align 8
  call void @_ZN4llvm11raw_ostream16SetBufferAndModeEPcmNS0_10BufferKindE(ptr noundef nonnull align 8 dereferenceable(56) %4, ptr noundef null, i64 noundef 0, i32 noundef 0) #23
  store ptr getelementptr inbounds nuw inrange(-16, 160) (i8, ptr @_ZTVN4llvm27DiagnosticPrinterRawOStreamE, i64 16), ptr %5, align 8
  %16 = getelementptr inbounds nuw i8, ptr %5, i64 8
  store ptr %4, ptr %16, align 8
  %17 = load ptr, ptr %1, align 8
  %18 = getelementptr inbounds nuw i8, ptr %17, i64 24
  %19 = load ptr, ptr %18, align 8
  call void %19(ptr noundef nonnull align 8 dereferenceable(13) %1, ptr noundef nonnull align 8 dereferenceable(8) %5) #23
  %20 = getelementptr inbounds nuw i8, ptr %4, i64 32
  %21 = load ptr, ptr %20, align 8
  %22 = load ptr, ptr %14, align 8
  %.not.i = icmp eq ptr %21, %22
  br i1 %.not.i, label %_ZN4llvm11raw_ostream5flushEv.exit, label %23

23:                                               ; preds = %10
  call void @_ZN4llvm11raw_ostream14flush_nonemptyEv(ptr noundef nonnull align 8 dereferenceable(48) %4) #23
  br label %_ZN4llvm11raw_ostream5flushEv.exit

_ZN4llvm11raw_ostream5flushEv.exit:               ; preds = %10, %23
  %24 = getelementptr inbounds nuw i8, ptr %0, i64 240
  %25 = load ptr, ptr %24, align 8
  %26 = call noundef ptr @_ZNKSt7__cxx1112basic_stringIcSt11char_traitsIcESaIcEE5c_strEv(ptr noundef nonnull align 8 dereferenceable(32) %3) #23
  %27 = getelementptr inbounds nuw i8, ptr %0, i64 248
  %28 = load ptr, ptr %27, align 8
  call void %25(i32 noundef %.0, ptr noundef %26, ptr noundef %28) #23
  call void @_ZN4llvm11raw_ostreamD2Ev(ptr noundef nonnull align 8 dereferenceable(56) %4) #23
  call void @_ZNSt7__cxx1112basic_stringIcSt11char_traitsIcESaIcEED1Ev(ptr noundef nonnull align 8 dereferenceable(32) %3) #23
  ret void
}